target datalayout = "e-m:e-p270:32:32-p271:32:32-p272:64:64-i64:64-i128:128-f80:128-n8:16:32:64-S128"
target triple = "x86_64-pc-linux-gnu"

%struct.slurmdb_instance_rec_t = type { ptr, ptr, ptr, ptr, ptr, i64, i64 }

; Function Attrs: nounwind uwtable
define dso_local void @slurmdb_init_instance_rec(ptr noundef %0) #0 {
  %2 = alloca ptr, align 8
  store ptr %0, ptr %2, align 8
  %3 = load ptr, ptr %2, align 8
  %4 = icmp ne ptr %3, null
  br i1 %4, label %6, label %5

5:                                                ; preds = %1
  br label %12

6:                                                ; preds = %1
  %7 = load ptr, ptr %2, align 8
  call void @llvm.memset.p0.i64(ptr align 8 %7, i8 0, i64 56, i1 false)
  %8 = load ptr, ptr %2, align 8
  %9 = getelementptr inbounds nuw %struct.slurmdb_instance_rec_t, ptr %8, i32 0, i32 5
  store i64 4294967294, ptr %9, align 8
  %10 = load ptr, ptr %2, align 8
  %11 = getelementptr inbounds nuw %struct.slurmdb_instance_rec_t, ptr %10, i32 0, i32 6
  store i64 4294967294, ptr %11, align 8
  br label %12

12:                                               ; preds = %6, %5
  ret void
}