; Function Attrs: mustprogress nofree norecurse nosync nounwind willreturn memory(argmem: write) uwtable
define dso_local void @slurmdb_init_instance_rec(ptr noundef writeonly captures(address_is_null) %0) local_unnamed_addr #9 {
  %.not = icmp eq ptr %0, null
  br i1 %.not, label %5, label %2

2:                                                ; preds = %1
  tail call void @llvm.memset.p0.i64(ptr noundef nonnull align 8 dereferenceable(56) %0, i8 0, i64 40, i1 false)
  %3 = getelementptr inbounds nuw i8, ptr %0, i64 40
  store i64 4294967294, ptr %3, align 8
  %4 = getelementptr inbounds nuw i8, ptr %0, i64 48
  store i64 4294967294, ptr %4, align 8
  br label %5

5:                                                ; preds = %1, %2
  ret void
}